target datalayout = "e-m:e-p270:32:32-p271:32:32-p272:64:64-i64:64-i128:128-f80:128-n8:16:32:64-S128"
target triple = "x86_64-pc-linux-gnu"

; Function Attrs: nounwind uwtable
define internal zeroext i8 @conv_ascii2bin(i8 noundef zeroext %0) #0 {
  %2 = alloca i8, align 1
  %3 = alloca i8, align 1
  store i8 %0, ptr %3, align 1, !tbaa !23
  %4 = load i8, ptr %3, align 1, !tbaa !23
  %5 = zext i8 %4 to i32
  %6 = icmp sge i32 %5, 128
  br i1 %6, label %7, label %8

7:                                                ; preds = %1
  store i8 -1, ptr %2, align 1
  br label %13

8:                                                ; preds = %1
  %9 = load i8, ptr %3, align 1, !tbaa !23
  %10 = zext i8 %9 to i64
  %11 = getelementptr inbounds nuw [128 x i8], ptr @data_ascii2bin, i64 0, i64 %10
  %12 = load i8, ptr %11, align 1, !tbaa !23
  store i8 %12, ptr %2, align 1
  br label %13

13:                                               ; preds = %8, %7
  %14 = load i8, ptr %2, align 1
  ret i8 %14
}

; Function Attrs: nounwind uwtable
define hidden i32 @EVP_DecodedLength(ptr noundef %0, i64 noundef %1) #0 {
  %3 = alloca i32, align 4
  %4 = alloca ptr, align 8
  %5 = alloca i64, align 8
  store ptr %0, ptr %4, align 8, !tbaa !27
  store i64 %1, ptr %5, align 8, !tbaa !20
  %6 = load i64, ptr %5, align 8, !tbaa !20
  %7 = urem i64 %6, 4
  %8 = icmp ne i64 %7, 0
  br i1 %8, label %9, label %10

9:                                                ; preds = %2
  store i32 0, ptr %3, align 4
  br label %15

10:                                               ; preds = %2
  %11 = load i64, ptr %5, align 8, !tbaa !20
  %12 = udiv i64 %11, 4
  %13 = mul i64 %12, 3
  %14 = load ptr, ptr %4, align 8, !tbaa !27
  store i64 %13, ptr %14, align 8, !tbaa !20
  store i32 1, ptr %3, align 4
  br label %15

15:                                               ; preds = %10, %9
  %16 = load i32, ptr %3, align 4
  ret i32 %16
}

; Function Attrs: nounwind uwtable
define hidden i32 @EVP_DecodeBase64(ptr noundef %0, ptr noundef %1, i64 noundef %2, ptr noundef %3, i64 noundef %4) #0 {
  %6 = alloca i32, align 4
  %7 = alloca ptr, align 8
  %8 = alloca ptr, align 8
  %9 = alloca i64, align 8
  %10 = alloca ptr, align 8
  %11 = alloca i64, align 8
  %12 = alloca i8, align 1
  %13 = alloca i8, align 1
  %14 = alloca i8, align 1
  %15 = alloca i8, align 1
  %16 = alloca i64, align 8
  %17 = alloca i64, align 8
  %18 = alloca i64, align 8
  %19 = alloca i64, align 8
  %20 = alloca i32, align 4
  %21 = alloca i32, align 4
  store ptr %0, ptr %7, align 8, !tbaa !16
  store ptr %1, ptr %8, align 8, !tbaa !27
  store i64 %2, ptr %9, align 8, !tbaa !20
  store ptr %3, ptr %10, align 8, !tbaa !16
  store i64 %4, ptr %11, align 8, !tbaa !20
  call void @llvm.lifetime.start.p0(i64 1, ptr %12) #3
  call void @llvm.lifetime.start.p0(i64 1, ptr %13) #3
  call void @llvm.lifetime.start.p0(i64 1, ptr %14) #3
  call void @llvm.lifetime.start.p0(i64 1, ptr %15) #3
  call void @llvm.lifetime.start.p0(i64 8, ptr %16) #3
  store i64 0, ptr %16, align 8, !tbaa !20
  call void @llvm.lifetime.start.p0(i64 8, ptr %17) #3
  store i64 0, ptr %17, align 8, !tbaa !20
  call void @llvm.lifetime.start.p0(i64 8, ptr %18) #3
  call void @llvm.lifetime.start.p0(i64 8, ptr %19) #3
  call void @llvm.lifetime.start.p0(i64 4, ptr %20) #3
  %22 = load i64, ptr %11, align 8, !tbaa !20
  %23 = call i32 @EVP_DecodedLength(ptr noundef %18, i64 noundef %22)
  %24 = icmp ne i32 %23, 0
  br i1 %24, label %25, label %29

25:                                               ; preds = %5
  %26 = load i64, ptr %9, align 8, !tbaa !20
  %27 = load i64, ptr %18, align 8, !tbaa !20
  %28 = icmp ult i64 %26, %27
  br i1 %28, label %29, label %30

29:                                               ; preds = %25, %5
  store i32 0, ptr %6, align 4
  store i32 1, ptr %21, align 4
  br label %158

30:                                               ; preds = %25
  store i64 0, ptr %19, align 8, !tbaa !20
  br label %31

31:                                               ; preds = %152, %30
  %32 = load i64, ptr %19, align 8, !tbaa !20
  %33 = load i64, ptr %11, align 8, !tbaa !20
  %34 = icmp ult i64 %32, %33
  br i1 %34, label %35, label %155

35:                                               ; preds = %31
  %36 = load ptr, ptr %10, align 8, !tbaa !16
  %37 = getelementptr inbounds nuw i8, ptr %36, i32 1
  store ptr %37, ptr %10, align 8, !tbaa !16
  %38 = load i8, ptr %36, align 1, !tbaa !23
  %39 = call zeroext i8 @conv_ascii2bin(i8 noundef zeroext %38)
  store i8 %39, ptr %12, align 1, !tbaa !23
  %40 = load ptr, ptr %10, align 8, !tbaa !16
  %41 = getelementptr inbounds nuw i8, ptr %40, i32 1
  store ptr %41, ptr %10, align 8, !tbaa !16
  %42 = load i8, ptr %40, align 1, !tbaa !23
  %43 = call zeroext i8 @conv_ascii2bin(i8 noundef zeroext %42)
  store i8 %43, ptr %13, align 1, !tbaa !23
  %44 = load i64, ptr %19, align 8, !tbaa !20
  %45 = add i64 %44, 4
  %46 = load i64, ptr %11, align 8, !tbaa !20
  %47 = icmp eq i64 %45, %46
  br i1 %47, label %48, label %63

48:                                               ; preds = %35
  %49 = load ptr, ptr %10, align 8, !tbaa !16
  %50 = getelementptr inbounds i8, ptr %49, i64 1
  %51 = load i8, ptr %50, align 1, !tbaa !23
  %52 = zext i8 %51 to i32
  %53 = icmp eq i32 %52, 61
  br i1 %53, label %54, label %63

54:                                               ; preds = %48
  %55 = load ptr, ptr %10, align 8, !tbaa !16
  %56 = getelementptr inbounds i8, ptr %55, i64 0
  %57 = load i8, ptr %56, align 1, !tbaa !23
  %58 = zext i8 %57 to i32
  %59 = icmp eq i32 %58, 61
  br i1 %59, label %60, label %61

60:                                               ; preds = %54
  store i64 2, ptr %16, align 8, !tbaa !20
  br label %62

61:                                               ; preds = %54
  store i64 1, ptr %16, align 8, !tbaa !20
  br label %62

62:                                               ; preds = %61, %60
  br label %63

63:                                               ; preds = %62, %48, %35
  %64 = load i64, ptr %16, align 8, !tbaa !20
  %65 = icmp ult i64 %64, 2
  br i1 %65, label %66, label %71

66:                                               ; preds = %63
  %67 = load ptr, ptr %10, align 8, !tbaa !16
  %68 = getelementptr inbounds nuw i8, ptr %67, i32 1
  store ptr %68, ptr %10, align 8, !tbaa !16
  %69 = load i8, ptr %67, align 1, !tbaa !23
  %70 = call zeroext i8 @conv_ascii2bin(i8 noundef zeroext %69)
  store i8 %70, ptr %14, align 1, !tbaa !23
  br label %72

71:                                               ; preds = %63
  store i8 0, ptr %14, align 1, !tbaa !23
  br label %72

72:                                               ; preds = %71, %66
  %73 = load i64, ptr %16, align 8, !tbaa !20
  %74 = icmp ult i64 %73, 1
  br i1 %74, label %75, label %80

75:                                               ; preds = %72
  %76 = load ptr, ptr %10, align 8, !tbaa !16
  %77 = getelementptr inbounds nuw i8, ptr %76, i32 1
  store ptr %77, ptr %10, align 8, !tbaa !16
  %78 = load i8, ptr %76, align 1, !tbaa !23
  %79 = call zeroext i8 @conv_ascii2bin(i8 noundef zeroext %78)
  store i8 %79, ptr %15, align 1, !tbaa !23
  br label %81

80:                                               ; preds = %72
  store i8 0, ptr %15, align 1, !tbaa !23
  br label %81

81:                                               ; preds = %80, %75
  %82 = load i8, ptr %12, align 1, !tbaa !23
  %83 = zext i8 %82 to i32
  %84 = and i32 %83, 128
  %85 = icmp ne i32 %84, 0
  br i1 %85, label %101, label %86

86:                                               ; preds = %81
  %87 = load i8, ptr %13, align 1, !tbaa !23
  %88 = zext i8 %87 to i32
  %89 = and i32 %88, 128
  %90 = icmp ne i32 %89, 0
  br i1 %90, label %101, label %91

91:                                               ; preds = %86
  %92 = load i8, ptr %14, align 1, !tbaa !23
  %93 = zext i8 %92 to i32
  %94 = and i32 %93, 128
  %95 = icmp ne i32 %94, 0
  br i1 %95, label %101, label %96

96:                                               ; preds = %91
  %97 = load i8, ptr %15, align 1, !tbaa !23
  %98 = zext i8 %97 to i32
  %99 = and i32 %98, 128
  %100 = icmp ne i32 %99, 0
  br i1 %100, label %101, label %102

101:                                              ; preds = %96, %91, %86, %81
  store i32 0, ptr %6, align 4
  store i32 1, ptr %21, align 4
  br label %158

102:                                              ; preds = %96
  %103 = load i8, ptr %12, align 1, !tbaa !23
  %104 = zext i8 %103 to i32
  %105 = shl i32 %104, 18
  %106 = load i8, ptr %13, align 1, !tbaa !23
  %107 = zext i8 %106 to i32
  %108 = shl i32 %107, 12
  %109 = or i32 %105, %108
  %110 = load i8, ptr %14, align 1, !tbaa !23
  %111 = zext i8 %110 to i32
  %112 = shl i32 %111, 6
  %113 = or i32 %109, %112
  %114 = load i8, ptr %15, align 1, !tbaa !23
  %115 = zext i8 %114 to i32
  %116 = or i32 %113, %115
  store i32 %116, ptr %20, align 4, !tbaa !22
  %117 = load i32, ptr %20, align 4, !tbaa !22
  %118 = lshr i32 %117, 16
  %119 = trunc i32 %118 to i8
  %120 = zext i8 %119 to i32
  %121 = and i32 %120, 255
  %122 = trunc i32 %121 to i8
  %123 = load ptr, ptr %7, align 8, !tbaa !16
  %124 = getelementptr inbounds nuw i8, ptr %123, i32 1
  store ptr %124, ptr %7, align 8, !tbaa !16
  store i8 %122, ptr %123, align 1, !tbaa !23
  %125 = load i64, ptr %16, align 8, !tbaa !20
  %126 = icmp ult i64 %125, 2
  br i1 %126, label %127, label %136

127:                                              ; preds = %102
  %128 = load i32, ptr %20, align 4, !tbaa !22
  %129 = lshr i32 %128, 8
  %130 = trunc i32 %129 to i8
  %131 = zext i8 %130 to i32
  %132 = and i32 %131, 255
  %133 = trunc i32 %132 to i8
  %134 = load ptr, ptr %7, align 8, !tbaa !16
  %135 = getelementptr inbounds nuw i8, ptr %134, i32 1
  store ptr %135, ptr %7, align 8, !tbaa !16
  store i8 %133, ptr %134, align 1, !tbaa !23
  br label %136

136:                                              ; preds = %127, %102
  %137 = load i64, ptr %16, align 8, !tbaa !20
  %138 = icmp ult i64 %137, 1
  br i1 %138, label %139, label %147

139:                                              ; preds = %136
  %140 = load i32, ptr %20, align 4, !tbaa !22
  %141 = trunc i32 %140 to i8
  %142 = zext i8 %141 to i32
  %143 = and i32 %142, 255
  %144 = trunc i32 %143 to i8
  %145 = load ptr, ptr %7, align 8, !tbaa !16
  %146 = getelementptr inbounds nuw i8, ptr %145, i32 1
  store ptr %146, ptr %7, align 8, !tbaa !16
  store i8 %144, ptr %145, align 1, !tbaa !23
  br label %147

147:                                              ; preds = %139, %136
  %148 = load i64, ptr %16, align 8, !tbaa !20
  %149 = sub i64 3, %148
  %150 = load i64, ptr %17, align 8, !tbaa !20
  %151 = add i64 %150, %149
  store i64 %151, ptr %17, align 8, !tbaa !20
  br label %152

152:                                              ; preds = %147
  %153 = load i64, ptr %19, align 8, !tbaa !20
  %154 = add i64 %153, 4
  store i64 %154, ptr %19, align 8, !tbaa !20
  br label %31, !llvm.loop !29

155:                                              ; preds = %31
  %156 = load i64, ptr %17, align 8, !tbaa !20
  %157 = load ptr, ptr %8, align 8, !tbaa !27
  store i64 %156, ptr %157, align 8, !tbaa !20
  store i32 1, ptr %6, align 4
  store i32 1, ptr %21, align 4
  br label %158

158:                                              ; preds = %155, %101, %29
  call void @llvm.lifetime.end.p0(i64 4, ptr %20) #3
  call void @llvm.lifetime.end.p0(i64 8, ptr %19) #3
  call void @llvm.lifetime.end.p0(i64 8, ptr %18) #3
  call void @llvm.lifetime.end.p0(i64 8, ptr %17) #3
  call void @llvm.lifetime.end.p0(i64 8, ptr %16) #3
  call void @llvm.lifetime.end.p0(i64 1, ptr %15) #3
  call void @llvm.lifetime.end.p0(i64 1, ptr %14) #3
  call void @llvm.lifetime.end.p0(i64 1, ptr %13) #3
  call void @llvm.lifetime.end.p0(i64 1, ptr %12) #3
  %159 = load i32, ptr %6, align 4
  ret i32 %159
}