; Function Attrs: nofree norecurse nosync nounwind memory(argmem: readwrite) uwtable
define hidden range(i32 0, 2) i32 @EVP_DecodeBase64(ptr noundef writeonly captures(none) %0, ptr noundef writeonly captures(none) %1, i64 noundef %2, ptr noundef readonly captures(none) %3, i64 noundef %4) local_unnamed_addr #1 {
  %6 = and i64 %4, 3
  %.not.i = icmp eq i64 %6, 0
  br i1 %.not.i, label %EVP_DecodedLength.exit, label %EVP_DecodedLength.exit.thread

EVP_DecodedLength.exit:                           ; preds = %5
  %7 = lshr exact i64 %4, 2
  %8 = mul nuw i64 %7, 3
  %9 = icmp ult i64 %2, %8
  br i1 %9, label %EVP_DecodedLength.exit.thread, label %.preheader

.preheader:                                       ; preds = %EVP_DecodedLength.exit
  %.not = icmp eq i64 %4, 0
  br i1 %.not, label %._crit_edge, label %.lr.ph

.lr.ph:                                           ; preds = %.preheader, %77
  %.03581 = phi i64 [ %24, %77 ], [ 0, %.preheader ]
  %.03680 = phi i64 [ %79, %77 ], [ 0, %.preheader ]
  %.03779 = phi i64 [ %.16674, %77 ], [ 0, %.preheader ]
  %.04078 = phi ptr [ %.2, %77 ], [ %0, %.preheader ]
  %.04277 = phi ptr [ %.244, %77 ], [ %3, %.preheader ]
  %10 = getelementptr inbounds nuw i8, ptr %.04277, i64 1
  %11 = load i8, ptr %.04277, align 1, !tbaa !14
  %12 = icmp slt i8 %11, 0
  br i1 %12, label %conv_ascii2bin.exit, label %13

13:                                               ; preds = %.lr.ph
  %14 = zext nneg i8 %11 to i64
  %15 = getelementptr inbounds nuw [128 x i8], ptr @data_ascii2bin, i64 0, i64 %14
  %16 = load i8, ptr %15, align 1, !tbaa !14
  br label %conv_ascii2bin.exit

conv_ascii2bin.exit:                              ; preds = %.lr.ph, %13
  %.0.i53 = phi i8 [ %16, %13 ], [ -1, %.lr.ph ]
  %17 = getelementptr inbounds nuw i8, ptr %.04277, i64 2
  %18 = load i8, ptr %10, align 1, !tbaa !14
  %19 = icmp slt i8 %18, 0
  br i1 %19, label %conv_ascii2bin.exit55, label %20

20:                                               ; preds = %conv_ascii2bin.exit
  %21 = zext nneg i8 %18 to i64
  %22 = getelementptr inbounds nuw [128 x i8], ptr @data_ascii2bin, i64 0, i64 %21
  %23 = load i8, ptr %22, align 1, !tbaa !14
  br label %conv_ascii2bin.exit55

conv_ascii2bin.exit55:                            ; preds = %conv_ascii2bin.exit, %20
  %.0.i54 = phi i8 [ %23, %20 ], [ -1, %conv_ascii2bin.exit ]
  %24 = add i64 %.03581, 4
  %25 = icmp eq i64 %24, %4
  br i1 %25, label %26, label %33

26:                                               ; preds = %conv_ascii2bin.exit55
  %27 = getelementptr inbounds nuw i8, ptr %.04277, i64 3
  %28 = load i8, ptr %27, align 1, !tbaa !14
  %29 = icmp eq i8 %28, 61
  br i1 %29, label %30, label %33

30:                                               ; preds = %26
  %31 = load i8, ptr %17, align 1, !tbaa !14
  %32 = icmp eq i8 %31, 61
  br i1 %32, label %.thread70, label %.thread

33:                                               ; preds = %26, %conv_ascii2bin.exit55
  %34 = icmp samesign ult i64 %.03779, 2
  br i1 %34, label %thread-pre-split, label %.thread70

thread-pre-split:                                 ; preds = %33
  %.pr = load i8, ptr %17, align 1, !tbaa !14
  %35 = icmp eq i64 %.03779, 0
  br label %.thread

.thread:                                          ; preds = %30, %thread-pre-split
  %36 = phi i8 [ %.pr, %thread-pre-split ], [ %31, %30 ]
  %.167 = phi i1 [ %35, %thread-pre-split ], [ false, %30 ]
  %37 = getelementptr inbounds nuw i8, ptr %.04277, i64 3
  %38 = icmp slt i8 %36, 0
  br i1 %38, label %44, label %39

39:                                               ; preds = %.thread
  %40 = zext nneg i8 %36 to i64
  %41 = getelementptr inbounds nuw [128 x i8], ptr @data_ascii2bin, i64 0, i64 %40
  %42 = load i8, ptr %41, align 1, !tbaa !14
  %43 = zext i8 %42 to i32
  br label %44

44:                                               ; preds = %39, %.thread
  %.0.i56 = phi i32 [ %43, %39 ], [ 255, %.thread ]
  br i1 %.167, label %45, label %.thread70

45:                                               ; preds = %44
  %46 = getelementptr inbounds nuw i8, ptr %.04277, i64 4
  %47 = load i8, ptr %37, align 1, !tbaa !14
  %48 = icmp slt i8 %47, 0
  br i1 %48, label %.thread70, label %49

49:                                               ; preds = %45
  %50 = zext nneg i8 %47 to i64
  %51 = getelementptr inbounds nuw [128 x i8], ptr @data_ascii2bin, i64 0, i64 %50
  %52 = load i8, ptr %51, align 1, !tbaa !14
  %53 = zext i8 %52 to i32
  br label %.thread70

.thread70:                                        ; preds = %49, %45, %30, %33, %44
  %54 = phi i1 [ false, %44 ], [ false, %33 ], [ false, %30 ], [ true, %45 ], [ true, %49 ]
  %.03975 = phi i32 [ %.0.i56, %44 ], [ 0, %33 ], [ 0, %30 ], [ %.0.i56, %45 ], [ %.0.i56, %49 ]
  %.16674 = phi i64 [ 1, %44 ], [ %.03779, %33 ], [ 2, %30 ], [ 0, %45 ], [ 0, %49 ]
  %55 = phi i1 [ true, %44 ], [ false, %33 ], [ false, %30 ], [ true, %45 ], [ true, %49 ]
  %.244 = phi ptr [ %37, %44 ], [ %17, %33 ], [ %17, %30 ], [ %46, %45 ], [ %46, %49 ]
  %.038 = phi i32 [ 0, %44 ], [ 0, %33 ], [ 0, %30 ], [ 255, %45 ], [ %53, %49 ]
  %56 = zext i8 %.0.i53 to i32
  %.not46 = icmp sgt i8 %.0.i53, -1
  br i1 %.not46, label %57, label %EVP_DecodedLength.exit.thread

57:                                               ; preds = %.thread70
  %.not47 = icmp sgt i8 %.0.i54, -1
  %.not48 = icmp samesign ult i32 %.03975, 128
  %or.cond51 = select i1 %.not47, i1 %.not48, i1 false
  %.not49 = icmp samesign ult i32 %.038, 128
  %or.cond52 = select i1 %or.cond51, i1 %.not49, i1 false
  br i1 %or.cond52, label %58, label %EVP_DecodedLength.exit.thread

58:                                               ; preds = %57
  %59 = zext nneg i8 %.0.i54 to i32
  %60 = shl nuw nsw i32 %56, 18
  %61 = shl nuw nsw i32 %59, 12
  %62 = or i32 %61, %60
  %63 = shl nuw nsw i32 %.03975, 6
  %64 = lshr i32 %62, 16
  %65 = trunc i32 %64 to i8
  %66 = getelementptr inbounds nuw i8, ptr %.04078, i64 1
  store i8 %65, ptr %.04078, align 1, !tbaa !14
  br i1 %55, label %67, label %72

67:                                               ; preds = %58
  %68 = or i32 %63, %61
  %69 = lshr i32 %68, 8
  %70 = trunc i32 %69 to i8
  %71 = getelementptr inbounds nuw i8, ptr %.04078, i64 2
  store i8 %70, ptr %66, align 1, !tbaa !14
  br label %72

72:                                               ; preds = %67, %58
  %.141 = phi ptr [ %71, %67 ], [ %66, %58 ]
  br i1 %54, label %73, label %77

73:                                               ; preds = %72
  %74 = or i32 %.038, %63
  %75 = trunc i32 %74 to i8
  %76 = getelementptr inbounds nuw i8, ptr %.141, i64 1
  store i8 %75, ptr %.141, align 1, !tbaa !14
  br label %77

77:                                               ; preds = %73, %72
  %.2 = phi ptr [ %76, %73 ], [ %.141, %72 ]
  %78 = xor i64 %.16674, 3
  %79 = add i64 %78, %.03680
  %80 = icmp ult i64 %24, %4
  br i1 %80, label %.lr.ph, label %._crit_edge, !llvm.loop !20

._crit_edge:                                      ; preds = %77, %.preheader
  %.036.lcssa = phi i64 [ 0, %.preheader ], [ %79, %77 ]
  store i64 %.036.lcssa, ptr %1, align 8, !tbaa !18
  br label %EVP_DecodedLength.exit.thread

EVP_DecodedLength.exit.thread:                    ; preds = %.thread70, %57, %5, %EVP_DecodedLength.exit, %._crit_edge
  %.0 = phi i32 [ 1, %._crit_edge ], [ 0, %EVP_DecodedLength.exit ], [ 0, %5 ], [ 0, %57 ], [ 0, %.thread70 ]
  ret i32 %.0
}